(lp0
(S'12212222131213333133122221333312222133331221222212222121'
p1
S'O'
p2
(dp3
(g2
S'P'
p4
tp5
I1
s(S'w'
p6
S'x'
p7
tp8
I1
s(S'6'
p9
S'7'
p10
tp11
I1
s(S'e'
p12
S'f'
p13
tp14
I0
s(S'0'
p15
S'1'
p16
tp17
I0
s(S'm'
p18
S'n'
p19
tp20
I1
s(S's'
p21
S't'
p22
tp23
I0
s(S'K'
p24
S'L'
p25
tp26
I0
s(S'c'
p27
S'd'
p28
tp29
I1
s(S'4'
p30
S'5'
p31
tp32
I1
s(S'Y'
p33
S'Z'
p34
tp35
I1
s(S'I'
p36
S'J'
p37
tp38
I1
s(S'C'
p39
S'D'
p40
tp41
I0
s(S'W'
p42
S'X'
p43
tp44
I1
s(S'g'
p45
S'h'
p46
tp47
I1
s(S'u'
p48
S'v'
p49
tp50
I1
s(S'E'
p51
S'F'
p52
tp53
I0
s(S'U'
p54
S'V'
p55
tp56
I0
s(S'k'
p57
S'l'
p58
tp59
I0
s(S'2'
p60
S'3'
p61
tp62
I1
s(S'q'
p63
S'r'
p64
tp65
I0
s(S'i'
p66
S'j'
p67
tp68
I1
s(S'A'
p69
S'B'
p70
tp71
I0
s(S'Q'
p72
S'R'
p73
tp74
I0
s(S'S'
p75
S'T'
p76
tp77
I0
s(S'a'
p78
S'b'
p79
tp80
I0
s(S'M'
p81
S'N'
p82
tp83
I0
s(S'y'
p84
S'z'
p85
tp86
I1
s(S'G'
p87
S'H'
p88
tp89
I0
s(S'o'
p90
S'p'
p91
tp92
I1
s(dp93
(g45
g12
tp94
I1
s(g42
g7
tp95
I0
s(g75
g42
tp96
I1
s(g40
g16
tp97
I1
s(g84
g45
tp98
I0
s(g25
g9
tp99
I0
s(g66
g46
tp100
I0
s(g87
g31
tp101
I1
s(g22
g82
tp102
I1
s(g90
g19
tp103
I0
s(g76
g72
tp104
I1
s(g18
g63
tp105
I1
s(g12
g27
tp106
I1
s(g70
g85
tp107
I1
s(g57
g66
tp108
I1
s(g91
g36
tp109
I0
s(g34
g30
tp110
I0
s(g81
g25
tp111
I0
s(g36
g24
tp112
I1
s(g73
g2
tp113
I0
s(g39
g57
tp114
I1
s(g60
g33
tp115
I0
s(g30
g51
tp116
I1
s(g55
g76
tp117
I1
s(g78
g22
tp118
I1
s(g33
g55
tp119
I1
s(g10
g37
tp120
I0
s(g31
g61
tp121
I0
s(g7
g49
tp122
I1
s(g9
g73
tp123
I0
s(g46
g69
tp124
I1
s(g61
g10
tp125
I1
s(g6
g84
tp126
I1
s(g49
g4
tp127
I0
s(g51
g40
tp128
I1
s(g85
g43
tp129
I0
s(g24
g21
tp130
I1
s(g64
g91
tp131
I1
s(g27
g6
tp132
I0
s(g21
g64
tp133
I1
s(g48
g28
tp134
I0
s(g13
g67
tp135
I1
s(g67
g18
tp136
I0
s(g19
g58
tp137
I1
s(g52
g88
tp138
I1
s(g4
g75
tp139
I1
s(g88
g90
tp140
I1
s(g79
g13
tp141
I1
s(g82
g48
tp142
I1
s(g28
g78
tp143
I1
s(g63
g79
tp144
I1
s(g16
g34
tp145
I1
s(g2
g81
tp146
I0
s(g58
g52
tp147
I1
s(g43
g54
tp148
I1
s(g15
g70
tp149
I1
s(g72
g60
tp150
I1
s(g54
g15
tp151
I1
s(g69
g39
tp152
I1
s(g37
g87
tp153
I1
stp154
a(S'12222133331222213333122221331333312131221222212222121221'
p155
g42
(dp156
g5
I1
sg8
I0
sg11
I1
sg14
I0
sg17
I0
sg20
I1
sg23
I1
sg26
I1
sg29
I0
sg32
I1
sg35
I1
sg38
I1
sg41
I0
sg44
I1
sg47
I1
sg50
I0
sg53
I0
sg56
I0
sg59
I0
sg62
I1
sg65
I0
sg68
I1
sg71
I0
sg74
I0
sg77
I0
sg80
I0
sg83
I1
sg86
I1
sg89
I0
sg92
I1
s(dp157
(g45
g12
tp158
I1
s(g42
g7
tp159
I0
s(g75
g42
tp160
I0
s(g40
g16
tp161
I1
s(g84
g45
tp162
I0
s(g25
g9
tp163
I0
s(g66
g46
tp164
I0
s(g87
g31
tp165
I1
s(g22
g82
tp166
I0
s(g90
g19
tp167
I0
s(g76
g72
tp168
I1
s(g18
g63
tp169
I1
s(g12
g27
tp170
I1
s(g70
g85
tp171
I1
s(g57
g66
tp172
I1
s(g91
g36
tp173
I0
s(g34
g30
tp174
I0
s(g81
g25
tp175
I1
s(g36
g24
tp176
I1
s(g73
g2
tp177
I1
s(g39
g57
tp178
I1
s(g60
g33
tp179
I0
s(g30
g51
tp180
I1
s(g55
g76
tp181
I1
s(g78
g22
tp182
I1
s(g33
g55
tp183
I1
s(g10
g37
tp184
I0
s(g31
g61
tp185
I0
s(g7
g49
tp186
I0
s(g9
g73
tp187
I1
s(g46
g69
tp188
I1
s(g61
g10
tp189
I1
s(g6
g84
tp190
I1
s(g49
g4
tp191
I0
s(g51
g40
tp192
I1
s(g85
g43
tp193
I0
s(g24
g21
tp194
I0
s(g64
g91
tp195
I1
s(g27
g6
tp196
I1
s(g21
g64
tp197
I1
s(g48
g28
tp198
I1
s(g13
g67
tp199
I1
s(g67
g18
tp200
I0
s(g19
g58
tp201
I1
s(g52
g88
tp202
I1
s(g4
g75
tp203
I0
s(g88
g90
tp204
I1
s(g79
g13
tp205
I1
s(g82
g48
tp206
I1
s(g28
g78
tp207
I1
s(g63
g79
tp208
I1
s(g16
g34
tp209
I1
s(g2
g81
tp210
I0
s(g58
g52
tp211
I1
s(g43
g54
tp212
I1
s(g15
g70
tp213
I1
s(g72
g60
tp214
I1
s(g54
g15
tp215
I1
s(g69
g39
tp216
I1
s(g37
g87
tp217
I1
stp218
a(S'12122133131331213122133331221331313312133331313313333131'
p219
g60
(dp220
g5
I1
sg8
I1
sg11
I1
sg14
I1
sg17
I0
sg20
I1
sg23
I1
sg26
I1
sg29
I1
sg32
I1
sg35
I0
sg38
I1
sg41
I0
sg44
I1
sg47
I0
sg50
I0
sg53
I1
sg56
I0
sg59
I1
sg62
I1
sg65
I0
sg68
I1
sg71
I0
sg74
I0
sg77
I1
sg80
I1
sg83
I1
sg86
I1
sg89
I0
sg92
I1
s(dp221
(g45
g12
tp222
I1
s(g42
g7
tp223
I0
s(g75
g42
tp224
I1
s(g40
g16
tp225
I1
s(g84
g45
tp226
I1
s(g25
g9
tp227
I0
s(g66
g46
tp228
I1
s(g87
g31
tp229
I1
s(g22
g82
tp230
I0
s(g90
g19
tp231
I0
s(g76
g72
tp232
I0
s(g18
g63
tp233
I1
s(g12
g27
tp234
I0
s(g70
g85
tp235
I1
s(g57
g66
tp236
I0
s(g91
g36
tp237
I0
s(g34
g30
tp238
I1
s(g81
g25
tp239
I1
s(g36
g24
tp240
I1
s(g73
g2
tp241
I1
s(g39
g57
tp242
I1
s(g60
g33
tp243
I0
s(g30
g51
tp244
I0
s(g55
g76
tp245
I0
s(g78
g22
tp246
I1
s(g33
g55
tp247
I0
s(g10
g37
tp248
I0
s(g31
g61
tp249
I0
s(g7
g49
tp250
I1
s(g9
g73
tp251
I1
s(g46
g69
tp252
I1
s(g61
g10
tp253
I1
s(g6
g84
tp254
I0
s(g49
g4
tp255
I1
s(g51
g40
tp256
I1
s(g85
g43
tp257
I0
s(g24
g21
tp258
I0
s(g64
g91
tp259
I1
s(g27
g6
tp260
I1
s(g21
g64
tp261
I1
s(g48
g28
tp262
I1
s(g13
g67
tp263
I1
s(g67
g18
tp264
I0
s(g19
g58
tp265
I1
s(g52
g88
tp266
I1
s(g4
g75
tp267
I0
s(g88
g90
tp268
I1
s(g79
g13
tp269
I0
s(g82
g48
tp270
I1
s(g28
g78
tp271
I0
s(g63
g79
tp272
I1
s(g16
g34
tp273
I1
s(g2
g81
tp274
I0
s(g58
g52
tp275
I0
s(g43
g54
tp276
I1
s(g15
g70
tp277
I1
s(g72
g60
tp278
I0
s(g54
g15
tp279
I1
s(g69
g39
tp280
I1
s(g37
g87
tp281
I1
stp282
a(S'12212122221222212213121333313312222133331222213333122221'
p283
g60
(dp284
g5
I0
sg8
I0
sg11
I0
sg14
I0
sg17
I0
sg20
I1
sg23
I1
sg26
I1
sg29
I0
sg32
I1
sg35
I0
sg38
I1
sg41
I0
sg44
I1
sg47
I1
sg50
I0
sg53
I1
sg56
I0
sg59
I0
sg62
I1
sg65
I0
sg68
I1
sg71
I0
sg74
I0
sg77
I1
sg80
I0
sg83
I1
sg86
I1
sg89
I1
sg92
I1
s(dp285
(g45
g12
tp286
I1
s(g42
g7
tp287
I1
s(g75
g42
tp288
I0
s(g40
g16
tp289
I1
s(g84
g45
tp290
I0
s(g25
g9
tp291
I1
s(g66
g46
tp292
I0
s(g87
g31
tp293
I1
s(g22
g82
tp294
I0
s(g90
g19
tp295
I0
s(g76
g72
tp296
I0
s(g18
g63
tp297
I1
s(g12
g27
tp298
I1
s(g70
g85
tp299
I1
s(g57
g66
tp300
I1
s(g91
g36
tp301
I0
s(g34
g30
tp302
I1
s(g81
g25
tp303
I0
s(g36
g24
tp304
I1
s(g73
g2
tp305
I1
s(g39
g57
tp306
I1
s(g60
g33
tp307
I0
s(g30
g51
tp308
I0
s(g55
g76
tp309
I0
s(g78
g22
tp310
I1
s(g33
g55
tp311
I0
s(g10
g37
tp312
I1
s(g31
g61
tp313
I0
s(g7
g49
tp314
I1
s(g9
g73
tp315
I1
s(g46
g69
tp316
I1
s(g61
g10
tp317
I1
s(g6
g84
tp318
I1
s(g49
g4
tp319
I1
s(g51
g40
tp320
I1
s(g85
g43
tp321
I0
s(g24
g21
tp322
I0
s(g64
g91
tp323
I1
s(g27
g6
tp324
I1
s(g21
g64
tp325
I1
s(g48
g28
tp326
I1
s(g13
g67
tp327
I1
s(g67
g18
tp328
I0
s(g19
g58
tp329
I1
s(g52
g88
tp330
I0
s(g4
g75
tp331
I1
s(g88
g90
tp332
I1
s(g79
g13
tp333
I1
s(g82
g48
tp334
I1
s(g28
g78
tp335
I1
s(g63
g79
tp336
I1
s(g16
g34
tp337
I1
s(g2
g81
tp338
I1
s(g58
g52
tp339
I1
s(g43
g54
tp340
I1
s(g15
g70
tp341
I1
s(g72
g60
tp342
I0
s(g54
g15
tp343
I1
s(g69
g39
tp344
I1
s(g37
g87
tp345
I0
stp346
a(g1
g60
(dp347
g5
I1
sg8
I0
sg11
I0
sg14
I0
sg17
I0
sg20
I1
sg23
I0
sg26
I0
sg29
I0
sg32
I1
sg35
I0
sg38
I1
sg41
I0
sg44
I1
sg47
I1
sg50
I1
sg53
I1
sg56
I0
sg59
I0
sg62
I1
sg65
I0
sg68
I1
sg71
I0
sg74
I0
sg77
I1
sg80
I0
sg83
I1
sg86
I1
sg89
I1
sg92
I1
s(dp348
(g45
g12
tp349
I1
s(g42
g7
tp350
I1
s(g75
g42
tp351
I0
s(g40
g16
tp352
I1
s(g84
g45
tp353
I0
s(g25
g9
tp354
I1
s(g66
g46
tp355
I0
s(g87
g31
tp356
I1
s(g22
g82
tp357
I1
s(g90
g19
tp358
I0
s(g76
g72
tp359
I0
s(g18
g63
tp360
I1
s(g12
g27
tp361
I1
s(g70
g85
tp362
I1
s(g57
g66
tp363
I1
s(g91
g36
tp364
I0
s(g34
g30
tp365
I1
s(g81
g25
tp366
I1
s(g36
g24
tp367
I1
s(g73
g2
tp368
I1
s(g39
g57
tp369
I1
s(g60
g33
tp370
I0
s(g30
g51
tp371
I0
s(g55
g76
tp372
I0
s(g78
g22
tp373
I1
s(g33
g55
tp374
I0
s(g10
g37
tp375
I1
s(g31
g61
tp376
I0
s(g7
g49
tp377
I1
s(g9
g73
tp378
I1
s(g46
g69
tp379
I1
s(g61
g10
tp380
I1
s(g6
g84
tp381
I1
s(g49
g4
tp382
I0
s(g51
g40
tp383
I1
s(g85
g43
tp384
I0
s(g24
g21
tp385
I1
s(g64
g91
tp386
I1
s(g27
g6
tp387
I1
s(g21
g64
tp388
I1
s(g48
g28
tp389
I1
s(g13
g67
tp390
I1
s(g67
g18
tp391
I0
s(g19
g58
tp392
I1
s(g52
g88
tp393
I0
s(g4
g75
tp394
I1
s(g88
g90
tp395
I1
s(g79
g13
tp396
I1
s(g82
g48
tp397
I0
s(g28
g78
tp398
I1
s(g63
g79
tp399
I1
s(g16
g34
tp400
I1
s(g2
g81
tp401
I0
s(g58
g52
tp402
I1
s(g43
g54
tp403
I1
s(g15
g70
tp404
I1
s(g72
g60
tp405
I0
s(g54
g15
tp406
I1
s(g69
g39
tp407
I1
s(g37
g87
tp408
I0
stp409
a.